target datalayout = "e-m:e-p270:32:32-p271:32:32-p272:64:64-i64:64-i128:128-f80:128-n8:16:32:64-S128"
target triple = "x86_64-pc-linux-gnu"

; Function Attrs: nounwind uwtable
define dso_local i64 @bit_get_bit_num(ptr noundef %0, i32 noundef %1) #0 {
  %3 = alloca ptr, align 8
  %4 = alloca i32, align 4
  %5 = alloca i64, align 8
  %6 = alloca i32, align 4
  %7 = alloca i64, align 8
  store ptr %0, ptr %3, align 8
  store i32 %1, ptr %4, align 4
  call void @llvm.lifetime.start.p0(i64 8, ptr %5) #12
  call void @llvm.lifetime.start.p0(i64 4, ptr %6) #12
  store i32 0, ptr %6, align 4
  call void @llvm.lifetime.start.p0(i64 8, ptr %7) #12
  br label %8

8:                                                ; preds = %2
  br label %9

9:                                                ; preds = %8
  br label %10

10:                                               ; preds = %9
  %11 = load ptr, ptr %3, align 8
  %12 = getelementptr inbounds i64, ptr %11, i64 1
  %13 = load i64, ptr %12, align 8
  store i64 %13, ptr %7, align 8
  store i64 0, ptr %5, align 8
  br label %14

14:                                               ; preds = %41, %10
  %15 = load i64, ptr %5, align 8
  %16 = load i64, ptr %7, align 8
  %17 = icmp slt i64 %15, %16
  br i1 %17, label %18, label %44

18:                                               ; preds = %14
  %19 = load ptr, ptr %3, align 8
  %20 = load i64, ptr %5, align 8
  %21 = ashr i64 %20, 6
  %22 = add nsw i64 %21, 2
  %23 = getelementptr inbounds i64, ptr %19, i64 %22
  %24 = load i64, ptr %23, align 8
  %25 = load i64, ptr %5, align 8
  %26 = and i64 %25, 63
  %27 = shl i64 1, %26
  %28 = and i64 %24, %27
  %29 = icmp ne i64 %28, 0
  br i1 %29, label %30, label %31

30:                                               ; preds = %18
  br i1 true, label %32, label %40

31:                                               ; preds = %18
  br i1 false, label %32, label %40

32:                                               ; preds = %31, %30
  %33 = load i32, ptr %6, align 4
  %34 = load i32, ptr %4, align 4
  %35 = icmp eq i32 %33, %34
  br i1 %35, label %36, label %37

36:                                               ; preds = %32
  br label %44

37:                                               ; preds = %32
  %38 = load i32, ptr %6, align 4
  %39 = add nsw i32 %38, 1
  store i32 %39, ptr %6, align 4
  br label %40

40:                                               ; preds = %37, %31, %30
  br label %41

41:                                               ; preds = %40
  %42 = load i64, ptr %5, align 8
  %43 = add nsw i64 %42, 1
  store i64 %43, ptr %5, align 8
  br label %14, !llvm.loop !41

44:                                               ; preds = %36, %14
  %45 = load i64, ptr %5, align 8
  %46 = load i64, ptr %7, align 8
  %47 = icmp sge i64 %45, %46
  br i1 %47, label %48, label %49

48:                                               ; preds = %44
  store i64 -1, ptr %5, align 8
  br label %49

49:                                               ; preds = %48, %44
  %50 = load i64, ptr %5, align 8
  call void @llvm.lifetime.end.p0(i64 8, ptr %7) #12
  call void @llvm.lifetime.end.p0(i64 4, ptr %6) #12
  call void @llvm.lifetime.end.p0(i64 8, ptr %5) #12
  ret i64 %50
}