; Function Attrs: nofree norecurse nosync nounwind memory(argmem: read) uwtable
define dso_local range(i64 -9223372036854775808, 9223372036854775807) i64 @bit_get_bit_num(ptr noundef readonly captures(none) %0, i32 noundef %1) #3 {
  %3 = getelementptr inbounds nuw i8, ptr %0, i64 8
  %4 = load i64, ptr %3, align 8
  %invariant.gep = getelementptr inbounds nuw i8, ptr %0, i64 16
  %5 = icmp sgt i64 %4, 0
  br i1 %5, label %.lr.ph, label %._crit_edge

.lr.ph:                                           ; preds = %2, %15
  %.015 = phi i64 [ %16, %15 ], [ 0, %2 ]
  %.01214 = phi i32 [ %.1, %15 ], [ 0, %2 ]
  %6 = lshr i64 %.015, 6
  %gep = getelementptr inbounds nuw i64, ptr %invariant.gep, i64 %6
  %7 = load i64, ptr %gep, align 8
  %8 = and i64 %.015, 63
  %9 = shl nuw i64 1, %8
  %10 = and i64 %7, %9
  %.not = icmp eq i64 %10, 0
  br i1 %.not, label %15, label %11

11:                                               ; preds = %.lr.ph
  %12 = icmp eq i32 %.01214, %1
  br i1 %12, label %._crit_edge, label %13

13:                                               ; preds = %11
  %14 = add nsw i32 %.01214, 1
  br label %15

15:                                               ; preds = %13, %.lr.ph
  %.1 = phi i32 [ %14, %13 ], [ %.01214, %.lr.ph ]
  %16 = add nuw nsw i64 %.015, 1
  %exitcond.not = icmp eq i64 %16, %4
  br i1 %exitcond.not, label %._crit_edge, label %.lr.ph, !llvm.loop !43

._crit_edge:                                      ; preds = %15, %11, %2
  %spec.store.select = phi i64 [ -1, %2 ], [ %.015, %11 ], [ -1, %15 ]
  ret i64 %spec.store.select
}